Certificate:
    Data:
        Version: 3 (0x2)
        Serial Number:
            74:89:d5:04:a5:cb:02:90:98:50:70:bf:e5:37:46:ed:f4:ec:c2:11
        Signature Algorithm: sha1WithRSAEncryption
        Issuer: C=AU, O=Dodgy Brothers, CN=Dodgy CA
        Validity
            Not Before: Aug 29 20:47:37 2022 GMT
            Not After : Aug 29 20:47:37 2023 GMT
        Subject: C=AU, O=Dodgy Brothers, CN=Brother 1, CN=nextupdate_generalizedtime
        Subject Public Key Info:
            Public Key Algorithm: rsaEncryption
                Public-Key: (2048 bit)
                Modulus:
                    00:be:95:86:fa:71:4c:6a:ea:51:98:50:4b:99:a1:
                    2c:66:15:f3:60:f3:e1:ff:69:fb:ce:48:01:1d:fe:
                    e1:2c:38:b0:e3:bd:8f:4b:48:a7:7e:3a:c6:73:e3:
                    ab:bf:e1:da:6e:96:f5:fe:c3:e4:b4:a8:ad:bc:56:
                    34:d4:96:25:74:27:c3:10:db:35:10:25:1c:8e:4b:
                    81:9b:fb:42:04:7c:6f:3d:e2:38:6c:0e:e4:2e:8e:
                    2a:18:6d:30:cd:67:2a:23:6b:37:cf:05:9f:cc:b7:
                    59:58:7f:ba:c4:0a:3f:8c:a4:ad:cb:98:9c:c0:f2:
                    8f:69:67:0f:c1:4e:33:cf:fc:85:5e:bb:5e:cf:93:
                    b0:cf:d9:f4:52:79:87:b1:f8:4d:15:68:65:d5:b7:
                    19:08:63:7f:5e:b1:34:ad:05:8f:5a:f0:e4:e1:8f:
                    25:f2:5c:5c:61:95:b0:56:2d:31:2b:08:65:79:e5:
                    b1:3b:9d:3e:b9:52:4b:ac:5d:c4:58:66:85:8d:81:
                    b3:04:28:f4:3f:2f:ac:92:01:62:d5:fd:8e:0b:da:
                    02:0c:7a:c7:6e:09:1c:ac:1c:b2:4c:d7:54:b8:26:
                    33:b2:5f:14:f3:b1:f9:3d:62:4d:40:99:6b:b6:e7:
                    89:58:97:d6:d4:4d:ea:4b:68:52:f3:3c:a8:b1:35:
                    88:db
                Exponent: 65537 (0x10001)
        X509v3 extensions:
            X509v3 Subject Key Identifier: 
                A1:DF:33:C3:CF:3E:53:41:A7:68:44:CC:AA:19:E1:84:C9:0D:BC:C6
            X509v3 Authority Key Identifier: 
                keyid:B4:11:33:F1:D7:E2:5E:F7:53:9E:20:22:10:4F:86:06:BF:1F:C9:5E
                DirName:/C=AU/O=Dodgy Brothers/CN=Dodgy CA
                serial:1B:93:5A:DC:E6:D4:40:6F:BB:45:81:47:98:4A:2E:BE:BD:A7:F3:97
            X509v3 Basic Constraints: critical
                CA:TRUE, pathlen:1
            X509v3 Key Usage: 
                Certificate Sign, CRL Sign
            X509v3 Issuer Alternative Name: 
                <EMPTY>

    Signature Algorithm: sha1WithRSAEncryption
    Signature Value:
        13:6c:22:54:7f:de:a6:c5:a1:d4:bd:ab:ab:bc:ca:80:da:49:
        22:be:a9:9e:88:80:e6:64:90:81:8e:eb:31:50:c4:9e:bf:97:
        4f:d3:ee:74:91:54:e7:59:4d:f3:c6:e0:41:de:df:93:78:df:
        5c:10:42:1e:e0:ed:cf:e8:62:82:7c:6a:0d:31:41:54:e8:fc:
        b2:39:e3:6a:3d:30:38:ec:9d:de:7d:dc:84:12:06:91:d5:07:
        5e:10:36:6e:ab:10:fb:8c:23:09:65:b4:b7:ae:b3:0b:5d:ec:
        bf:40:3e:e4:b3:86:d7:0e:0e:c1:00:da:45:4c:97:b7:64:67:
        9b:6f:9e:96:c4:01:27:d9:ef:bf:1e:1e:9b:13:e6:7f:fe:18:
        47:6f:a9:6c:95:90:30:88:26:17:58:f3:ae:cd:b0:f5:97:14:
        0f:ea:f5:af:e7:4f:b7:d7:0b:a6:98:dd:8f:a7:40:ba:de:e9:
        31:72:0e:84:a1:ca:4a:b0:c0:59:56:9a:9d:64:22:ff:7e:cc:
        f5:4a:18:e8:44:35:a1:39:9d:ca:39:d5:06:3e:e4:1b:52:5a:
        e8:33:94:fb:29:82:9a:e5:83:20:a8:59:c2:f3:6f:fa:43:87:
        b4:ef:35:b2:de:ba:f5:0f:e6:ad:92:37:c4:07:df:d1:31:d0:
        b5:3c:cf:19
-----BEGIN CERTIFICATE-----
MIID6zCCAtOgAwIBAgIUdInVBKXLApCYUHC/5TdG7fTswhEwDQYJKoZIhvcNAQEF
BQAwOTELMAkGA1UEBhMCQVUxFzAVBgNVBAoMDkRvZGd5IEJyb3RoZXJzMREwDwYD
VQQDDAhEb2RneSBDQTAeFw0yMjA4MjkyMDQ3MzdaFw0yMzA4MjkyMDQ3MzdaMF8x
CzAJBgNVBAYTAkFVMRcwFQYDVQQKDA5Eb2RneSBCcm90aGVyczESMBAGA1UEAwwJ
QnJvdGhlciAxMSMwIQYDVQQDDBpuZXh0dXBkYXRlX2dlbmVyYWxpemVkdGltZTCC
ASIwDQYJKoZIhvcNAQEBBQADggEPADCCAQoCggEBAL6VhvpxTGrqUZhQS5mhLGYV
82Dz4f9p+85IAR3+4Sw4sOO9j0tIp346xnPjq7/h2m6W9f7D5LSorbxWNNSWJXQn
wxDbNRAlHI5LgZv7QgR8bz3iOGwO5C6OKhhtMM1nKiNrN88Fn8y3WVh/usQKP4yk
rcuYnMDyj2lnD8FOM8/8hV67Xs+TsM/Z9FJ5h7H4TRVoZdW3GQhjf16xNK0Fj1rw
5OGPJfJcXGGVsFYtMSsIZXnlsTudPrlSS6xdxFhmhY2BswQo9D8vrJIBYtX9jgva
Agx6x24JHKwcskzXVLgmM7JfFPOx+T1iTUCZa7bniViX1tRN6ktoUvM8qLE1iNsC
AwEAAaOBxDCBwTAdBgNVHQ4EFgQUod8zw88+U0GnaETMqhnhhMkNvMYwdAYDVR0j
BG0wa4AUtBEz8dfiXvdTniAiEE+GBr8fyV6hPaQ7MDkxCzAJBgNVBAYTAkFVMRcw
FQYDVQQKDA5Eb2RneSBCcm90aGVyczERMA8GA1UEAwwIRG9kZ3kgQ0GCFBuTWtzm
1EBvu0WBR5hKLr69p/OXMBIGA1UdEwEB/wQIMAYBAf8CAQEwCwYDVR0PBAQDAgEG
MAkGA1UdEgQCMAAwDQYJKoZIhvcNAQEFBQADggEBABNsIlR/3qbFodS9q6u8yoDa
SSK+qZ6IgOZkkIGO6zFQxJ6/l0/T7nSRVOdZTfPG4EHe35N431wQQh7g7c/oYoJ8
ag0xQVTo/LI542o9MDjsnd593IQSBpHVB14QNm6rEPuMIwlltLeuswtd7L9APuSz
htcODsEA2kVMl7dkZ5tvnpbEASfZ778eHpsT5n/+GEdvqWyVkDCIJhdY867NsPWX
FA/q9a/nT7fXC6aY3Y+nQLre6TFyDoShykqwwFlWmp1kIv9+zPVKGOhENaE5nco5
1QY+5BtSWugzlPspgprlgyCoWcLzb/pDh7TvNbLeuvUP5q2SN8QH39Ex0LU8zxk=
-----END CERTIFICATE-----
