Certificate:
    Data:
        Version: 3 (0x2)
        Serial Number:
            74:89:d5:04:a5:cb:02:90:98:50:70:bf:e5:37:46:ed:f4:ec:c2:13
        Signature Algorithm: sha1WithRSAEncryption
        Issuer: C=AU, O=Dodgy Brothers, CN=Dodgy CA
        Validity
            Not Before: Aug 29 20:47:39 2022 GMT
            Not After : Aug 29 20:47:39 2023 GMT
        Subject: C=AU, O=Dodgy Brothers, CN=Brother 1, CN=both_generalizedtime
        Subject Public Key Info:
            Public Key Algorithm: rsaEncryption
                Public-Key: (2048 bit)
                Modulus:
                    00:be:95:86:fa:71:4c:6a:ea:51:98:50:4b:99:a1:
                    2c:66:15:f3:60:f3:e1:ff:69:fb:ce:48:01:1d:fe:
                    e1:2c:38:b0:e3:bd:8f:4b:48:a7:7e:3a:c6:73:e3:
                    ab:bf:e1:da:6e:96:f5:fe:c3:e4:b4:a8:ad:bc:56:
                    34:d4:96:25:74:27:c3:10:db:35:10:25:1c:8e:4b:
                    81:9b:fb:42:04:7c:6f:3d:e2:38:6c:0e:e4:2e:8e:
                    2a:18:6d:30:cd:67:2a:23:6b:37:cf:05:9f:cc:b7:
                    59:58:7f:ba:c4:0a:3f:8c:a4:ad:cb:98:9c:c0:f2:
                    8f:69:67:0f:c1:4e:33:cf:fc:85:5e:bb:5e:cf:93:
                    b0:cf:d9:f4:52:79:87:b1:f8:4d:15:68:65:d5:b7:
                    19:08:63:7f:5e:b1:34:ad:05:8f:5a:f0:e4:e1:8f:
                    25:f2:5c:5c:61:95:b0:56:2d:31:2b:08:65:79:e5:
                    b1:3b:9d:3e:b9:52:4b:ac:5d:c4:58:66:85:8d:81:
                    b3:04:28:f4:3f:2f:ac:92:01:62:d5:fd:8e:0b:da:
                    02:0c:7a:c7:6e:09:1c:ac:1c:b2:4c:d7:54:b8:26:
                    33:b2:5f:14:f3:b1:f9:3d:62:4d:40:99:6b:b6:e7:
                    89:58:97:d6:d4:4d:ea:4b:68:52:f3:3c:a8:b1:35:
                    88:db
                Exponent: 65537 (0x10001)
        X509v3 extensions:
            X509v3 Subject Key Identifier: 
                A1:DF:33:C3:CF:3E:53:41:A7:68:44:CC:AA:19:E1:84:C9:0D:BC:C6
            X509v3 Authority Key Identifier: 
                keyid:B4:11:33:F1:D7:E2:5E:F7:53:9E:20:22:10:4F:86:06:BF:1F:C9:5E
                DirName:/C=AU/O=Dodgy Brothers/CN=Dodgy CA
                serial:1B:93:5A:DC:E6:D4:40:6F:BB:45:81:47:98:4A:2E:BE:BD:A7:F3:97
            X509v3 Basic Constraints: critical
                CA:TRUE, pathlen:1
            X509v3 Key Usage: 
                Certificate Sign, CRL Sign
            X509v3 Issuer Alternative Name: 
                <EMPTY>

    Signature Algorithm: sha1WithRSAEncryption
    Signature Value:
        8c:59:39:14:77:cc:9e:e3:bf:ee:69:14:18:81:87:52:44:d1:
        87:6d:7c:de:b1:ac:1c:3f:f7:ba:f8:cd:54:e3:58:88:44:bb:
        e3:8c:20:05:1b:6d:32:59:9d:39:d1:46:6f:c9:9f:3d:e0:45:
        fd:98:06:e5:e2:71:81:9c:bf:6c:08:9a:a4:00:4b:67:79:b5:
        1b:47:c4:06:78:dd:3d:e9:57:c9:5c:d2:c0:6d:56:49:cf:0b:
        c4:57:e0:5c:65:b5:27:3e:b7:d3:ed:8c:56:69:89:01:8e:95:
        08:24:64:4b:4f:f4:ea:77:f2:b6:06:ca:3d:0c:3e:9f:ea:f9:
        e4:2a:7a:d2:b1:f7:12:7c:53:f5:7e:c2:89:4d:90:76:9b:0e:
        2d:ff:e2:7b:2d:ca:a4:e1:7c:5a:2a:c7:f5:ee:dc:95:ba:2a:
        b1:ce:4b:30:f8:66:5c:c5:12:92:38:e7:43:23:af:8f:5a:9d:
        7a:d5:ae:ac:41:4a:4e:cd:5c:59:20:46:f9:e3:3f:d3:4c:51:
        8b:f1:b5:77:8d:b5:a0:b7:6b:a8:13:2d:cd:fd:37:94:f6:21:
        0d:21:d5:e1:7e:be:65:f7:4f:0a:6e:18:82:cf:18:d6:2b:55:
        9c:29:fb:b7:e5:19:20:5c:da:1d:b7:b9:2c:cd:74:29:57:37:
        e3:d5:d4:23
-----BEGIN CERTIFICATE-----
MIID5TCCAs2gAwIBAgIUdInVBKXLApCYUHC/5TdG7fTswhMwDQYJKoZIhvcNAQEF
BQAwOTELMAkGA1UEBhMCQVUxFzAVBgNVBAoMDkRvZGd5IEJyb3RoZXJzMREwDwYD
VQQDDAhEb2RneSBDQTAeFw0yMjA4MjkyMDQ3MzlaFw0yMzA4MjkyMDQ3MzlaMFkx
CzAJBgNVBAYTAkFVMRcwFQYDVQQKDA5Eb2RneSBCcm90aGVyczESMBAGA1UEAwwJ
QnJvdGhlciAxMR0wGwYDVQQDDBRib3RoX2dlbmVyYWxpemVkdGltZTCCASIwDQYJ
KoZIhvcNAQEBBQADggEPADCCAQoCggEBAL6VhvpxTGrqUZhQS5mhLGYV82Dz4f9p
+85IAR3+4Sw4sOO9j0tIp346xnPjq7/h2m6W9f7D5LSorbxWNNSWJXQnwxDbNRAl
HI5LgZv7QgR8bz3iOGwO5C6OKhhtMM1nKiNrN88Fn8y3WVh/usQKP4ykrcuYnMDy
j2lnD8FOM8/8hV67Xs+TsM/Z9FJ5h7H4TRVoZdW3GQhjf16xNK0Fj1rw5OGPJfJc
XGGVsFYtMSsIZXnlsTudPrlSS6xdxFhmhY2BswQo9D8vrJIBYtX9jgvaAgx6x24J
HKwcskzXVLgmM7JfFPOx+T1iTUCZa7bniViX1tRN6ktoUvM8qLE1iNsCAwEAAaOB
xDCBwTAdBgNVHQ4EFgQUod8zw88+U0GnaETMqhnhhMkNvMYwdAYDVR0jBG0wa4AU
tBEz8dfiXvdTniAiEE+GBr8fyV6hPaQ7MDkxCzAJBgNVBAYTAkFVMRcwFQYDVQQK
DA5Eb2RneSBCcm90aGVyczERMA8GA1UEAwwIRG9kZ3kgQ0GCFBuTWtzm1EBvu0WB
R5hKLr69p/OXMBIGA1UdEwEB/wQIMAYBAf8CAQEwCwYDVR0PBAQDAgEGMAkGA1Ud
EgQCMAAwDQYJKoZIhvcNAQEFBQADggEBAIxZORR3zJ7jv+5pFBiBh1JE0YdtfN6x
rBw/97r4zVTjWIhEu+OMIAUbbTJZnTnRRm/Jnz3gRf2YBuXicYGcv2wImqQAS2d5
tRtHxAZ43T3pV8lc0sBtVknPC8RX4FxltSc+t9PtjFZpiQGOlQgkZEtP9Op38rYG
yj0MPp/q+eQqetKx9xJ8U/V+wolNkHabDi3/4nstyqThfFoqx/Xu3JW6KrHOSzD4
ZlzFEpI450Mjr49anXrVrqxBSk7NXFkgRvnjP9NMUYvxtXeNtaC3a6gTLc39N5T2
IQ0h1eF+vmX3TwpuGILPGNYrVZwp+7flGSBc2h23uSzNdClXN+PV1CM=
-----END CERTIFICATE-----
