Certificate:
    Data:
        Version: 3 (0x2)
        Serial Number:
            74:89:d5:04:a5:cb:02:90:98:50:70:bf:e5:37:46:ed:f4:ec:c2:0b
        Signature Algorithm: sha1WithRSAEncryption
        Issuer: C=AU, O=Dodgy Brothers, CN=Dodgy CA
        Validity
            Not Before: Aug 29 20:47:32 2022 GMT
            Not After : Aug 29 20:47:32 2023 GMT
        Subject: C=AU, O=Dodgy Brothers, CN=Brother 1, CN=notimes
        Subject Public Key Info:
            Public Key Algorithm: rsaEncryption
                Public-Key: (2048 bit)
                Modulus:
                    00:be:95:86:fa:71:4c:6a:ea:51:98:50:4b:99:a1:
                    2c:66:15:f3:60:f3:e1:ff:69:fb:ce:48:01:1d:fe:
                    e1:2c:38:b0:e3:bd:8f:4b:48:a7:7e:3a:c6:73:e3:
                    ab:bf:e1:da:6e:96:f5:fe:c3:e4:b4:a8:ad:bc:56:
                    34:d4:96:25:74:27:c3:10:db:35:10:25:1c:8e:4b:
                    81:9b:fb:42:04:7c:6f:3d:e2:38:6c:0e:e4:2e:8e:
                    2a:18:6d:30:cd:67:2a:23:6b:37:cf:05:9f:cc:b7:
                    59:58:7f:ba:c4:0a:3f:8c:a4:ad:cb:98:9c:c0:f2:
                    8f:69:67:0f:c1:4e:33:cf:fc:85:5e:bb:5e:cf:93:
                    b0:cf:d9:f4:52:79:87:b1:f8:4d:15:68:65:d5:b7:
                    19:08:63:7f:5e:b1:34:ad:05:8f:5a:f0:e4:e1:8f:
                    25:f2:5c:5c:61:95:b0:56:2d:31:2b:08:65:79:e5:
                    b1:3b:9d:3e:b9:52:4b:ac:5d:c4:58:66:85:8d:81:
                    b3:04:28:f4:3f:2f:ac:92:01:62:d5:fd:8e:0b:da:
                    02:0c:7a:c7:6e:09:1c:ac:1c:b2:4c:d7:54:b8:26:
                    33:b2:5f:14:f3:b1:f9:3d:62:4d:40:99:6b:b6:e7:
                    89:58:97:d6:d4:4d:ea:4b:68:52:f3:3c:a8:b1:35:
                    88:db
                Exponent: 65537 (0x10001)
        X509v3 extensions:
            X509v3 Subject Key Identifier: 
                A1:DF:33:C3:CF:3E:53:41:A7:68:44:CC:AA:19:E1:84:C9:0D:BC:C6
            X509v3 Authority Key Identifier: 
                keyid:B4:11:33:F1:D7:E2:5E:F7:53:9E:20:22:10:4F:86:06:BF:1F:C9:5E
                DirName:/C=AU/O=Dodgy Brothers/CN=Dodgy CA
                serial:1B:93:5A:DC:E6:D4:40:6F:BB:45:81:47:98:4A:2E:BE:BD:A7:F3:97
            X509v3 Basic Constraints: critical
                CA:TRUE, pathlen:1
            X509v3 Key Usage: 
                Certificate Sign, CRL Sign
            X509v3 Issuer Alternative Name: 
                <EMPTY>

    Signature Algorithm: sha1WithRSAEncryption
    Signature Value:
        4d:b8:3c:46:68:d3:60:54:94:07:e0:40:9d:d0:0a:b3:42:9c:
        74:78:64:75:96:91:de:56:d7:1a:1b:42:2d:06:6a:ae:49:73:
        3e:be:11:62:dc:00:8a:7b:9b:35:89:8f:2d:2d:e2:c4:d8:cf:
        be:e6:7c:41:d4:42:4a:ca:c3:10:cf:9c:fd:39:43:db:ed:32:
        34:68:04:8c:d5:f4:13:81:8b:cb:73:68:c1:a7:ee:83:e7:e2:
        fc:c8:53:a7:cf:e4:f1:42:63:a5:9d:85:ad:14:43:5e:f4:be:
        39:17:60:3c:02:55:2d:bf:4e:89:fb:21:8f:26:b2:05:3f:d1:
        4a:3d:c4:ab:04:e0:98:6e:94:d5:94:31:6e:b4:33:14:10:48:
        a4:e6:d5:43:8c:72:4f:22:0f:05:2a:50:5f:6e:08:17:5b:29:
        2a:5c:2d:ce:8e:cd:c7:22:44:fd:9b:5b:62:78:6a:20:7e:c9:
        b9:c0:9b:6a:18:4e:e3:ef:3d:87:a6:f9:c2:9b:42:8c:9a:78:
        d7:6b:7c:54:23:ed:3c:a3:20:10:70:c1:7f:da:55:d8:9b:a1:
        48:7c:ab:05:cf:8d:b9:c0:75:ff:e7:7a:01:27:c3:d3:59:ba:
        ef:0d:e2:94:67:1c:92:dc:3a:e3:06:e7:91:b9:a5:35:f7:f0:
        71:2a:e0:9e
-----BEGIN CERTIFICATE-----
MIID2DCCAsCgAwIBAgIUdInVBKXLApCYUHC/5TdG7fTswgswDQYJKoZIhvcNAQEF
BQAwOTELMAkGA1UEBhMCQVUxFzAVBgNVBAoMDkRvZGd5IEJyb3RoZXJzMREwDwYD
VQQDDAhEb2RneSBDQTAeFw0yMjA4MjkyMDQ3MzJaFw0yMzA4MjkyMDQ3MzJaMEwx
CzAJBgNVBAYTAkFVMRcwFQYDVQQKDA5Eb2RneSBCcm90aGVyczESMBAGA1UEAwwJ
QnJvdGhlciAxMRAwDgYDVQQDDAdub3RpbWVzMIIBIjANBgkqhkiG9w0BAQEFAAOC
AQ8AMIIBCgKCAQEAvpWG+nFMaupRmFBLmaEsZhXzYPPh/2n7zkgBHf7hLDiw472P
S0infjrGc+Orv+Habpb1/sPktKitvFY01JYldCfDENs1ECUcjkuBm/tCBHxvPeI4
bA7kLo4qGG0wzWcqI2s3zwWfzLdZWH+6xAo/jKSty5icwPKPaWcPwU4zz/yFXrte
z5Owz9n0UnmHsfhNFWhl1bcZCGN/XrE0rQWPWvDk4Y8l8lxcYZWwVi0xKwhleeWx
O50+uVJLrF3EWGaFjYGzBCj0Py+skgFi1f2OC9oCDHrHbgkcrByyTNdUuCYzsl8U
87H5PWJNQJlrtueJWJfW1E3qS2hS8zyosTWI2wIDAQABo4HEMIHBMB0GA1UdDgQW
BBSh3zPDzz5TQadoRMyqGeGEyQ28xjB0BgNVHSMEbTBrgBS0ETPx1+Je91OeICIQ
T4YGvx/JXqE9pDswOTELMAkGA1UEBhMCQVUxFzAVBgNVBAoMDkRvZGd5IEJyb3Ro
ZXJzMREwDwYDVQQDDAhEb2RneSBDQYIUG5Na3ObUQG+7RYFHmEouvr2n85cwEgYD
VR0TAQH/BAgwBgEB/wIBATALBgNVHQ8EBAMCAQYwCQYDVR0SBAIwADANBgkqhkiG
9w0BAQUFAAOCAQEATbg8RmjTYFSUB+BAndAKs0KcdHhkdZaR3lbXGhtCLQZqrklz
Pr4RYtwAinubNYmPLS3ixNjPvuZ8QdRCSsrDEM+c/TlD2+0yNGgEjNX0E4GLy3No
wafug+fi/MhTp8/k8UJjpZ2FrRRDXvS+ORdgPAJVLb9OifshjyayBT/RSj3EqwTg
mG6U1ZQxbrQzFBBIpObVQ4xyTyIPBSpQX24IF1spKlwtzo7NxyJE/ZtbYnhqIH7J
ucCbahhO4+89h6b5wptCjJp412t8VCPtPKMgEHDBf9pV2JuhSHyrBc+NucB1/+d6
ASfD01m67w3ilGccktw64wbnkbmlNffwcSrgng==
-----END CERTIFICATE-----
