Certificate:
    Data:
        Version: 3 (0x2)
        Serial Number:
            74:89:d5:04:a5:cb:02:90:98:50:70:bf:e5:37:46:ed:f4:ec:c2:0d
        Signature Algorithm: sha1WithRSAEncryption
        Issuer: C=AU, O=Dodgy Brothers, CN=Dodgy CA
        Validity
            Not Before: Aug 29 20:47:33 2022 GMT
            Not After : Aug 29 20:47:33 2023 GMT
        Subject: C=AU, O=Dodgy Brothers, CN=Brother 1, CN=lastupdate_utctime
        Subject Public Key Info:
            Public Key Algorithm: rsaEncryption
                Public-Key: (2048 bit)
                Modulus:
                    00:be:95:86:fa:71:4c:6a:ea:51:98:50:4b:99:a1:
                    2c:66:15:f3:60:f3:e1:ff:69:fb:ce:48:01:1d:fe:
                    e1:2c:38:b0:e3:bd:8f:4b:48:a7:7e:3a:c6:73:e3:
                    ab:bf:e1:da:6e:96:f5:fe:c3:e4:b4:a8:ad:bc:56:
                    34:d4:96:25:74:27:c3:10:db:35:10:25:1c:8e:4b:
                    81:9b:fb:42:04:7c:6f:3d:e2:38:6c:0e:e4:2e:8e:
                    2a:18:6d:30:cd:67:2a:23:6b:37:cf:05:9f:cc:b7:
                    59:58:7f:ba:c4:0a:3f:8c:a4:ad:cb:98:9c:c0:f2:
                    8f:69:67:0f:c1:4e:33:cf:fc:85:5e:bb:5e:cf:93:
                    b0:cf:d9:f4:52:79:87:b1:f8:4d:15:68:65:d5:b7:
                    19:08:63:7f:5e:b1:34:ad:05:8f:5a:f0:e4:e1:8f:
                    25:f2:5c:5c:61:95:b0:56:2d:31:2b:08:65:79:e5:
                    b1:3b:9d:3e:b9:52:4b:ac:5d:c4:58:66:85:8d:81:
                    b3:04:28:f4:3f:2f:ac:92:01:62:d5:fd:8e:0b:da:
                    02:0c:7a:c7:6e:09:1c:ac:1c:b2:4c:d7:54:b8:26:
                    33:b2:5f:14:f3:b1:f9:3d:62:4d:40:99:6b:b6:e7:
                    89:58:97:d6:d4:4d:ea:4b:68:52:f3:3c:a8:b1:35:
                    88:db
                Exponent: 65537 (0x10001)
        X509v3 extensions:
            X509v3 Subject Key Identifier: 
                A1:DF:33:C3:CF:3E:53:41:A7:68:44:CC:AA:19:E1:84:C9:0D:BC:C6
            X509v3 Authority Key Identifier: 
                keyid:B4:11:33:F1:D7:E2:5E:F7:53:9E:20:22:10:4F:86:06:BF:1F:C9:5E
                DirName:/C=AU/O=Dodgy Brothers/CN=Dodgy CA
                serial:1B:93:5A:DC:E6:D4:40:6F:BB:45:81:47:98:4A:2E:BE:BD:A7:F3:97
            X509v3 Basic Constraints: critical
                CA:TRUE, pathlen:1
            X509v3 Key Usage: 
                Certificate Sign, CRL Sign
            X509v3 Issuer Alternative Name: 
                <EMPTY>

    Signature Algorithm: sha1WithRSAEncryption
    Signature Value:
        25:d3:1f:5d:38:e6:ff:29:fb:e3:60:f2:18:b0:95:cb:cd:b4:
        21:d3:31:df:fc:e4:56:0b:ce:48:e4:68:37:ab:aa:16:af:f8:
        01:51:10:3f:1e:8f:33:fb:9f:8f:a6:57:12:63:91:10:e6:bc:
        62:41:08:9f:0e:c8:2e:df:0e:d6:06:e9:d4:c7:ef:4d:ba:f4:
        75:f8:29:d4:e9:80:6a:b3:c0:92:6a:2f:e1:a7:74:0b:06:af:
        2c:d5:bb:91:d9:64:99:89:7a:f4:d3:94:b3:1a:d7:9c:52:21:
        8a:95:d1:bb:fc:06:3d:32:e4:30:7f:0b:aa:72:e7:83:d0:e6:
        80:43:1a:7d:48:d8:d3:d7:d4:b7:bc:a9:1f:63:c3:82:0b:a6:
        b4:70:04:47:24:a0:ff:1d:95:23:de:80:7d:04:37:11:45:ca:
        9a:30:70:69:09:db:f0:92:23:23:92:98:91:2b:13:27:41:ec:
        5a:98:ab:a9:3f:d1:7b:1a:90:13:3e:b1:97:30:f0:4d:a7:d8:
        36:61:24:44:c9:65:65:95:27:12:a7:21:e3:20:89:46:36:f3:
        a4:e6:7e:4e:f3:41:6a:04:98:14:8b:1a:88:8e:1e:ee:e6:3c:
        42:db:93:92:11:05:4e:b7:90:e2:b0:08:be:f2:20:7b:dd:11:
        42:dd:a5:da
-----BEGIN CERTIFICATE-----
MIID4zCCAsugAwIBAgIUdInVBKXLApCYUHC/5TdG7fTswg0wDQYJKoZIhvcNAQEF
BQAwOTELMAkGA1UEBhMCQVUxFzAVBgNVBAoMDkRvZGd5IEJyb3RoZXJzMREwDwYD
VQQDDAhEb2RneSBDQTAeFw0yMjA4MjkyMDQ3MzNaFw0yMzA4MjkyMDQ3MzNaMFcx
CzAJBgNVBAYTAkFVMRcwFQYDVQQKDA5Eb2RneSBCcm90aGVyczESMBAGA1UEAwwJ
QnJvdGhlciAxMRswGQYDVQQDDBJsYXN0dXBkYXRlX3V0Y3RpbWUwggEiMA0GCSqG
SIb3DQEBAQUAA4IBDwAwggEKAoIBAQC+lYb6cUxq6lGYUEuZoSxmFfNg8+H/afvO
SAEd/uEsOLDjvY9LSKd+OsZz46u/4dpulvX+w+S0qK28VjTUliV0J8MQ2zUQJRyO
S4Gb+0IEfG894jhsDuQujioYbTDNZyojazfPBZ/Mt1lYf7rECj+MpK3LmJzA8o9p
Zw/BTjPP/IVeu17Pk7DP2fRSeYex+E0VaGXVtxkIY39esTStBY9a8OThjyXyXFxh
lbBWLTErCGV55bE7nT65UkusXcRYZoWNgbMEKPQ/L6ySAWLV/Y4L2gIMesduCRys
HLJM11S4JjOyXxTzsfk9Yk1AmWu254lYl9bUTepLaFLzPKixNYjbAgMBAAGjgcQw
gcEwHQYDVR0OBBYEFKHfM8PPPlNBp2hEzKoZ4YTJDbzGMHQGA1UdIwRtMGuAFLQR
M/HX4l73U54gIhBPhga/H8leoT2kOzA5MQswCQYDVQQGEwJBVTEXMBUGA1UECgwO
RG9kZ3kgQnJvdGhlcnMxETAPBgNVBAMMCERvZGd5IENBghQbk1rc5tRAb7tFgUeY
Si6+vafzlzASBgNVHRMBAf8ECDAGAQH/AgEBMAsGA1UdDwQEAwIBBjAJBgNVHRIE
AjAAMA0GCSqGSIb3DQEBBQUAA4IBAQAl0x9dOOb/KfvjYPIYsJXLzbQh0zHf/ORW
C85I5Gg3q6oWr/gBURA/Ho8z+5+PplcSY5EQ5rxiQQifDsgu3w7WBunUx+9NuvR1
+CnU6YBqs8CSai/hp3QLBq8s1buR2WSZiXr005SzGtecUiGKldG7/AY9MuQwfwuq
cueD0OaAQxp9SNjT19S3vKkfY8OCC6a0cARHJKD/HZUj3oB9BDcRRcqaMHBpCdvw
kiMjkpiRKxMnQexamKupP9F7GpATPrGXMPBNp9g2YSREyWVllScSpyHjIIlGNvOk
5n5O80FqBJgUixqIjh7u5jxC25OSEQVOt5DisAi+8iB73RFC3aXa
-----END CERTIFICATE-----
