Certificate:
    Data:
        Version: 3 (0x2)
        Serial Number:
            74:89:d5:04:a5:cb:02:90:98:50:70:bf:e5:37:46:ed:f4:ec:c2:0e
        Signature Algorithm: sha1WithRSAEncryption
        Issuer: C=AU, O=Dodgy Brothers, CN=Dodgy CA
        Validity
            Not Before: Aug 29 20:47:34 2022 GMT
            Not After : Aug 29 20:47:34 2023 GMT
        Subject: C=AU, O=Dodgy Brothers, CN=Brother 1, CN=lastupdate_generalizedtime
        Subject Public Key Info:
            Public Key Algorithm: rsaEncryption
                Public-Key: (2048 bit)
                Modulus:
                    00:be:95:86:fa:71:4c:6a:ea:51:98:50:4b:99:a1:
                    2c:66:15:f3:60:f3:e1:ff:69:fb:ce:48:01:1d:fe:
                    e1:2c:38:b0:e3:bd:8f:4b:48:a7:7e:3a:c6:73:e3:
                    ab:bf:e1:da:6e:96:f5:fe:c3:e4:b4:a8:ad:bc:56:
                    34:d4:96:25:74:27:c3:10:db:35:10:25:1c:8e:4b:
                    81:9b:fb:42:04:7c:6f:3d:e2:38:6c:0e:e4:2e:8e:
                    2a:18:6d:30:cd:67:2a:23:6b:37:cf:05:9f:cc:b7:
                    59:58:7f:ba:c4:0a:3f:8c:a4:ad:cb:98:9c:c0:f2:
                    8f:69:67:0f:c1:4e:33:cf:fc:85:5e:bb:5e:cf:93:
                    b0:cf:d9:f4:52:79:87:b1:f8:4d:15:68:65:d5:b7:
                    19:08:63:7f:5e:b1:34:ad:05:8f:5a:f0:e4:e1:8f:
                    25:f2:5c:5c:61:95:b0:56:2d:31:2b:08:65:79:e5:
                    b1:3b:9d:3e:b9:52:4b:ac:5d:c4:58:66:85:8d:81:
                    b3:04:28:f4:3f:2f:ac:92:01:62:d5:fd:8e:0b:da:
                    02:0c:7a:c7:6e:09:1c:ac:1c:b2:4c:d7:54:b8:26:
                    33:b2:5f:14:f3:b1:f9:3d:62:4d:40:99:6b:b6:e7:
                    89:58:97:d6:d4:4d:ea:4b:68:52:f3:3c:a8:b1:35:
                    88:db
                Exponent: 65537 (0x10001)
        X509v3 extensions:
            X509v3 Subject Key Identifier: 
                A1:DF:33:C3:CF:3E:53:41:A7:68:44:CC:AA:19:E1:84:C9:0D:BC:C6
            X509v3 Authority Key Identifier: 
                keyid:B4:11:33:F1:D7:E2:5E:F7:53:9E:20:22:10:4F:86:06:BF:1F:C9:5E
                DirName:/C=AU/O=Dodgy Brothers/CN=Dodgy CA
                serial:1B:93:5A:DC:E6:D4:40:6F:BB:45:81:47:98:4A:2E:BE:BD:A7:F3:97
            X509v3 Basic Constraints: critical
                CA:TRUE, pathlen:1
            X509v3 Key Usage: 
                Certificate Sign, CRL Sign
            X509v3 Issuer Alternative Name: 
                <EMPTY>

    Signature Algorithm: sha1WithRSAEncryption
    Signature Value:
        18:5a:69:06:17:20:72:40:5c:e2:e7:fc:37:17:d3:2b:fa:53:
        ef:ac:c7:01:54:84:f6:5e:e0:12:38:82:84:93:b8:53:54:03:
        c3:a6:46:2a:fe:f9:a9:ab:e0:50:b0:7b:fa:5f:b5:e4:38:c3:
        fe:57:e8:05:e2:da:0d:0f:0f:77:42:42:23:82:ea:c5:1d:68:
        6b:d3:55:9f:49:24:3c:9c:ef:4b:24:20:8d:76:61:60:25:e8:
        78:b3:e1:c9:17:25:89:3d:b2:25:ce:88:96:db:67:56:00:66:
        c9:0c:d7:8c:5a:de:f3:e4:de:64:04:8f:3c:43:24:ea:28:22:
        d7:2f:2f:01:84:31:cf:05:c2:7a:12:b5:7c:02:c2:79:7a:6c:
        b8:85:bb:42:ea:85:31:0c:fa:52:76:07:c9:9d:66:0c:80:36:
        81:e1:d2:d9:7e:df:02:62:c9:62:84:b2:83:8b:ad:61:60:2e:
        6f:48:38:5e:61:7b:6f:44:f3:d5:d3:1d:ee:5e:d6:a7:4f:87:
        8c:07:e9:ec:69:68:64:43:7b:4e:a4:f0:57:33:1a:51:f9:18:
        c8:1b:7b:11:f5:c9:44:f6:a3:13:a9:88:58:04:b4:76:80:de:
        c3:9f:e1:f6:bf:82:a0:7d:23:e6:9f:3e:11:2c:75:3c:be:9d:
        30:7f:56:4d
-----BEGIN CERTIFICATE-----
MIID6zCCAtOgAwIBAgIUdInVBKXLApCYUHC/5TdG7fTswg4wDQYJKoZIhvcNAQEF
BQAwOTELMAkGA1UEBhMCQVUxFzAVBgNVBAoMDkRvZGd5IEJyb3RoZXJzMREwDwYD
VQQDDAhEb2RneSBDQTAeFw0yMjA4MjkyMDQ3MzRaFw0yMzA4MjkyMDQ3MzRaMF8x
CzAJBgNVBAYTAkFVMRcwFQYDVQQKDA5Eb2RneSBCcm90aGVyczESMBAGA1UEAwwJ
QnJvdGhlciAxMSMwIQYDVQQDDBpsYXN0dXBkYXRlX2dlbmVyYWxpemVkdGltZTCC
ASIwDQYJKoZIhvcNAQEBBQADggEPADCCAQoCggEBAL6VhvpxTGrqUZhQS5mhLGYV
82Dz4f9p+85IAR3+4Sw4sOO9j0tIp346xnPjq7/h2m6W9f7D5LSorbxWNNSWJXQn
wxDbNRAlHI5LgZv7QgR8bz3iOGwO5C6OKhhtMM1nKiNrN88Fn8y3WVh/usQKP4yk
rcuYnMDyj2lnD8FOM8/8hV67Xs+TsM/Z9FJ5h7H4TRVoZdW3GQhjf16xNK0Fj1rw
5OGPJfJcXGGVsFYtMSsIZXnlsTudPrlSS6xdxFhmhY2BswQo9D8vrJIBYtX9jgva
Agx6x24JHKwcskzXVLgmM7JfFPOx+T1iTUCZa7bniViX1tRN6ktoUvM8qLE1iNsC
AwEAAaOBxDCBwTAdBgNVHQ4EFgQUod8zw88+U0GnaETMqhnhhMkNvMYwdAYDVR0j
BG0wa4AUtBEz8dfiXvdTniAiEE+GBr8fyV6hPaQ7MDkxCzAJBgNVBAYTAkFVMRcw
FQYDVQQKDA5Eb2RneSBCcm90aGVyczERMA8GA1UEAwwIRG9kZ3kgQ0GCFBuTWtzm
1EBvu0WBR5hKLr69p/OXMBIGA1UdEwEB/wQIMAYBAf8CAQEwCwYDVR0PBAQDAgEG
MAkGA1UdEgQCMAAwDQYJKoZIhvcNAQEFBQADggEBABhaaQYXIHJAXOLn/DcX0yv6
U++sxwFUhPZe4BI4goSTuFNUA8OmRir++amr4FCwe/pfteQ4w/5X6AXi2g0PD3dC
QiOC6sUdaGvTVZ9JJDyc70skII12YWAl6Hiz4ckXJYk9siXOiJbbZ1YAZskM14xa
3vPk3mQEjzxDJOooItcvLwGEMc8FwnoStXwCwnl6bLiFu0LqhTEM+lJ2B8mdZgyA
NoHh0tl+3wJiyWKEsoOLrWFgLm9IOF5he29E89XTHe5e1qdPh4wH6expaGRDe06k
8FczGlH5GMgbexH1yUT2oxOpiFgEtHaA3sOf4fa/gqB9I+afPhEsdTy+nTB/Vk0=
-----END CERTIFICATE-----
