Certificate:
    Data:
        Version: 3 (0x2)
        Serial Number:
            74:89:d5:04:a5:cb:02:90:98:50:70:bf:e5:37:46:ed:f4:ec:c2:09
        Signature Algorithm: sha256WithRSAEncryption
        Issuer: C=AU, O=Dodgy Brothers, CN=Dodgy CA
        Validity
            Not Before: Aug 29 20:47:30 2022 GMT
            Not After : Aug 29 20:47:30 2023 GMT
        Subject: C=AU, O=Dodgy Brothers, CN=Brother 1, CN=Brother 2
        Subject Public Key Info:
            Public Key Algorithm: rsaEncryption
                Public-Key: (2048 bit)
                Modulus:
                    00:a8:ff:89:58:61:85:ae:de:db:2c:0f:d5:73:fb:
                    e2:b7:a8:1b:7a:75:60:2b:d4:7d:3c:73:76:b5:ae:
                    de:93:2f:7f:24:90:6d:c9:1c:f4:8a:38:cd:9f:a2:
                    80:16:56:cb:b4:2c:bb:93:e5:17:1f:ff:0d:c6:43:
                    fe:31:34:f8:28:d8:75:e9:a3:bb:88:82:ef:a3:72:
                    e2:53:62:05:45:4d:e0:31:97:ef:aa:9d:10:d2:58:
                    0d:9e:06:9e:32:bb:1b:08:56:5d:65:0f:3f:66:8e:
                    c2:36:a0:11:ff:c0:59:35:fd:49:1c:dd:1c:42:33:
                    06:78:ae:04:38:23:e5:e7:75:67:d3:94:ad:5a:a9:
                    40:1f:ac:59:10:f5:0c:c1:64:ad:4a:c4:c6:35:53:
                    b3:96:6a:82:1b:15:8b:d1:99:ab:e4:9e:6f:94:aa:
                    d2:96:e5:57:fb:8c:91:64:8a:3c:24:16:c6:d2:19:
                    be:82:60:13:3b:62:b0:ed:3e:1d:b3:ca:f9:6b:df:
                    31:b9:7a:9e:4b:47:68:a7:29:c7:3f:4a:e2:22:27:
                    b4:ef:90:63:d7:ef:d0:72:49:3e:5b:ad:b9:1b:d4:
                    2b:6f:86:68:dd:d5:73:12:b8:43:c9:dc:41:0f:a2:
                    a3:46:4f:8b:67:88:84:0f:61:fe:79:34:1f:4a:89:
                    1f:b7
                Exponent: 65537 (0x10001)
        X509v3 extensions:
            X509v3 Basic Constraints: 
                CA:FALSE
            X509v3 Subject Key Identifier: 
                E7:9B:E2:2A:AD:8A:6C:3A:CB:76:51:E5:8E:07:98:22:97:E1:73:A2
            X509v3 Authority Key Identifier: 
                B4:11:33:F1:D7:E2:5E:F7:53:9E:20:22:10:4F:86:06:BF:1F:C9:5E
    Signature Algorithm: sha256WithRSAEncryption
    Signature Value:
        72:11:63:ea:1c:65:4b:4d:6e:3e:6e:84:58:44:44:d5:37:ee:
        6a:65:6c:e3:8b:05:c4:3b:9a:05:60:7a:41:6a:58:7f:d7:89:
        a7:ee:8a:f5:5d:b2:95:8d:88:8a:5a:d8:d0:4f:95:d9:f9:75:
        8a:3a:85:e7:e0:8b:30:5c:ef:7b:9c:af:f5:e6:a4:4c:0e:86:
        87:9e:20:fb:ba:22:6e:ac:78:f3:d6:72:6f:1d:1c:12:a8:19:
        f4:b7:6b:7a:88:f4:0b:9c:a0:06:f4:75:e5:ef:8f:af:e2:93:
        97:97:2e:b1:b1:16:93:72:a3:82:a8:af:90:65:19:63:4d:6f:
        d3:b9:f5:5f:cf:e1:41:99:77:32:79:3e:00:fa:ef:80:8a:d1:
        6f:32:f1:65:71:37:ef:df:62:60:7c:1a:52:4f:33:b3:b3:df:
        97:96:8f:3e:87:bf:2e:f7:25:ef:cb:79:d1:56:f4:60:9c:40:
        f1:f2:98:93:50:a3:15:d5:b9:40:62:bc:a3:7d:2f:95:93:77:
        de:a3:0a:9f:2a:42:f2:d7:cc:e5:f8:eb:eb:9d:3a:d9:ef:e9:
        92:31:1d:00:c2:e6:77:4f:b4:c9:5b:67:50:52:7b:6a:be:a1:
        bc:c0:f9:7a:40:c3:3a:a5:6f:b0:e3:89:e5:85:cb:bd:74:ce:
        58:7f:04:65
-----BEGIN CERTIFICATE-----
MIIDYjCCAkqgAwIBAgIUdInVBKXLApCYUHC/5TdG7fTswgkwDQYJKoZIhvcNAQEL
BQAwOTELMAkGA1UEBhMCQVUxFzAVBgNVBAoMDkRvZGd5IEJyb3RoZXJzMREwDwYD
VQQDDAhEb2RneSBDQTAeFw0yMjA4MjkyMDQ3MzBaFw0yMzA4MjkyMDQ3MzBaME4x
CzAJBgNVBAYTAkFVMRcwFQYDVQQKDA5Eb2RneSBCcm90aGVyczESMBAGA1UEAwwJ
QnJvdGhlciAxMRIwEAYDVQQDDAlCcm90aGVyIDIwggEiMA0GCSqGSIb3DQEBAQUA
A4IBDwAwggEKAoIBAQCo/4lYYYWu3tssD9Vz++K3qBt6dWAr1H08c3a1rt6TL38k
kG3JHPSKOM2fooAWVsu0LLuT5Rcf/w3GQ/4xNPgo2HXpo7uIgu+jcuJTYgVFTeAx
l++qnRDSWA2eBp4yuxsIVl1lDz9mjsI2oBH/wFk1/Ukc3RxCMwZ4rgQ4I+XndWfT
lK1aqUAfrFkQ9QzBZK1KxMY1U7OWaoIbFYvRmavknm+UqtKW5Vf7jJFkijwkFsbS
Gb6CYBM7YrDtPh2zyvlr3zG5ep5LR2inKcc/SuIiJ7TvkGPX79ByST5brbkb1Ctv
hmjd1XMSuEPJ3EEPoqNGT4tniIQPYf55NB9KiR+3AgMBAAGjTTBLMAkGA1UdEwQC
MAAwHQYDVR0OBBYEFOeb4iqtimw6y3ZR5Y4HmCKX4XOiMB8GA1UdIwQYMBaAFLQR
M/HX4l73U54gIhBPhga/H8leMA0GCSqGSIb3DQEBCwUAA4IBAQByEWPqHGVLTW4+
boRYRETVN+5qZWzjiwXEO5oFYHpBalh/14mn7or1XbKVjYiKWtjQT5XZ+XWKOoXn
4IswXO97nK/15qRMDoaHniD7uiJurHjz1nJvHRwSqBn0t2t6iPQLnKAG9HXl74+v
4pOXly6xsRaTcqOCqK+QZRljTW/TufVfz+FBmXcyeT4A+u+AitFvMvFlcTfv32Jg
fBpSTzOzs9+Xlo8+h78u9yXvy3nRVvRgnEDx8piTUKMV1blAYryjfS+Vk3feowqf
KkLy18zl+OvrnTrZ7+mSMR0AwuZ3T7TJW2dQUntqvqG8wPl6QMM6pW+w44nlhcu9
dM5YfwRl
-----END CERTIFICATE-----
