Certificate:
    Data:
        Version: 3 (0x2)
        Serial Number:
            74:89:d5:04:a5:cb:02:90:98:50:70:bf:e5:37:46:ed:f4:ec:c2:0c
        Signature Algorithm: sha1WithRSAEncryption
        Issuer: C=AU, O=Dodgy Brothers, CN=Dodgy CA
        Validity
            Not Before: Aug 29 20:47:33 2022 GMT
            Not After : Aug 29 20:47:33 2023 GMT
        Subject: C=AU, O=Dodgy Brothers, CN=Brother 1, CN=lastupdate_invalid
        Subject Public Key Info:
            Public Key Algorithm: rsaEncryption
                Public-Key: (2048 bit)
                Modulus:
                    00:be:95:86:fa:71:4c:6a:ea:51:98:50:4b:99:a1:
                    2c:66:15:f3:60:f3:e1:ff:69:fb:ce:48:01:1d:fe:
                    e1:2c:38:b0:e3:bd:8f:4b:48:a7:7e:3a:c6:73:e3:
                    ab:bf:e1:da:6e:96:f5:fe:c3:e4:b4:a8:ad:bc:56:
                    34:d4:96:25:74:27:c3:10:db:35:10:25:1c:8e:4b:
                    81:9b:fb:42:04:7c:6f:3d:e2:38:6c:0e:e4:2e:8e:
                    2a:18:6d:30:cd:67:2a:23:6b:37:cf:05:9f:cc:b7:
                    59:58:7f:ba:c4:0a:3f:8c:a4:ad:cb:98:9c:c0:f2:
                    8f:69:67:0f:c1:4e:33:cf:fc:85:5e:bb:5e:cf:93:
                    b0:cf:d9:f4:52:79:87:b1:f8:4d:15:68:65:d5:b7:
                    19:08:63:7f:5e:b1:34:ad:05:8f:5a:f0:e4:e1:8f:
                    25:f2:5c:5c:61:95:b0:56:2d:31:2b:08:65:79:e5:
                    b1:3b:9d:3e:b9:52:4b:ac:5d:c4:58:66:85:8d:81:
                    b3:04:28:f4:3f:2f:ac:92:01:62:d5:fd:8e:0b:da:
                    02:0c:7a:c7:6e:09:1c:ac:1c:b2:4c:d7:54:b8:26:
                    33:b2:5f:14:f3:b1:f9:3d:62:4d:40:99:6b:b6:e7:
                    89:58:97:d6:d4:4d:ea:4b:68:52:f3:3c:a8:b1:35:
                    88:db
                Exponent: 65537 (0x10001)
        X509v3 extensions:
            X509v3 Subject Key Identifier: 
                A1:DF:33:C3:CF:3E:53:41:A7:68:44:CC:AA:19:E1:84:C9:0D:BC:C6
            X509v3 Authority Key Identifier: 
                keyid:B4:11:33:F1:D7:E2:5E:F7:53:9E:20:22:10:4F:86:06:BF:1F:C9:5E
                DirName:/C=AU/O=Dodgy Brothers/CN=Dodgy CA
                serial:1B:93:5A:DC:E6:D4:40:6F:BB:45:81:47:98:4A:2E:BE:BD:A7:F3:97
            X509v3 Basic Constraints: critical
                CA:TRUE, pathlen:1
            X509v3 Key Usage: 
                Certificate Sign, CRL Sign
            X509v3 Issuer Alternative Name: 
                <EMPTY>

    Signature Algorithm: sha1WithRSAEncryption
    Signature Value:
        49:63:45:56:02:d3:05:ec:1f:c9:e7:c6:6e:82:6a:e9:d8:6b:
        20:e0:03:68:03:38:e7:a6:4e:48:2c:e6:cb:a9:b3:d1:ff:f3:
        cd:a1:d5:ba:e7:f9:da:49:6a:bc:d7:6e:46:10:13:1c:5d:19:
        79:23:66:a0:53:85:cd:52:fd:10:e8:33:52:cc:fd:e7:e2:30:
        82:b4:56:fc:20:1d:a2:9b:43:18:41:7f:f7:00:7a:32:b9:7b:
        30:73:bc:38:c9:c5:ef:64:54:6e:20:60:55:83:36:d1:f0:1c:
        17:a7:0b:6a:44:dd:25:7b:ba:4a:d9:63:8c:60:5c:6c:33:86:
        92:f2:7c:e7:30:d1:db:94:05:7f:1f:7b:ea:2e:96:1d:88:b2:
        55:a0:9b:75:a1:9d:ee:b6:8d:90:1e:d0:4f:03:fb:cb:5f:c9:
        e7:76:95:75:1a:12:a0:2f:d6:23:81:ad:f1:a2:29:7a:22:61:
        c3:56:aa:e9:2d:85:29:94:b2:da:83:88:35:8b:90:c1:b7:8e:
        90:b1:fa:79:c3:75:69:c1:25:7b:07:4d:0f:5c:0a:4c:73:87:
        fa:29:9e:94:bd:08:c9:b5:ec:6c:11:ec:7c:04:80:d2:7a:32:
        66:a9:c3:89:37:28:90:f3:2d:fe:23:01:dd:73:e3:18:7d:39:
        35:22:ce:2e
-----BEGIN CERTIFICATE-----
MIID4zCCAsugAwIBAgIUdInVBKXLApCYUHC/5TdG7fTswgwwDQYJKoZIhvcNAQEF
BQAwOTELMAkGA1UEBhMCQVUxFzAVBgNVBAoMDkRvZGd5IEJyb3RoZXJzMREwDwYD
VQQDDAhEb2RneSBDQTAeFw0yMjA4MjkyMDQ3MzNaFw0yMzA4MjkyMDQ3MzNaMFcx
CzAJBgNVBAYTAkFVMRcwFQYDVQQKDA5Eb2RneSBCcm90aGVyczESMBAGA1UEAwwJ
QnJvdGhlciAxMRswGQYDVQQDDBJsYXN0dXBkYXRlX2ludmFsaWQwggEiMA0GCSqG
SIb3DQEBAQUAA4IBDwAwggEKAoIBAQC+lYb6cUxq6lGYUEuZoSxmFfNg8+H/afvO
SAEd/uEsOLDjvY9LSKd+OsZz46u/4dpulvX+w+S0qK28VjTUliV0J8MQ2zUQJRyO
S4Gb+0IEfG894jhsDuQujioYbTDNZyojazfPBZ/Mt1lYf7rECj+MpK3LmJzA8o9p
Zw/BTjPP/IVeu17Pk7DP2fRSeYex+E0VaGXVtxkIY39esTStBY9a8OThjyXyXFxh
lbBWLTErCGV55bE7nT65UkusXcRYZoWNgbMEKPQ/L6ySAWLV/Y4L2gIMesduCRys
HLJM11S4JjOyXxTzsfk9Yk1AmWu254lYl9bUTepLaFLzPKixNYjbAgMBAAGjgcQw
gcEwHQYDVR0OBBYEFKHfM8PPPlNBp2hEzKoZ4YTJDbzGMHQGA1UdIwRtMGuAFLQR
M/HX4l73U54gIhBPhga/H8leoT2kOzA5MQswCQYDVQQGEwJBVTEXMBUGA1UECgwO
RG9kZ3kgQnJvdGhlcnMxETAPBgNVBAMMCERvZGd5IENBghQbk1rc5tRAb7tFgUeY
Si6+vafzlzASBgNVHRMBAf8ECDAGAQH/AgEBMAsGA1UdDwQEAwIBBjAJBgNVHRIE
AjAAMA0GCSqGSIb3DQEBBQUAA4IBAQBJY0VWAtMF7B/J58Zugmrp2Gsg4ANoAzjn
pk5ILObLqbPR//PNodW65/naSWq8125GEBMcXRl5I2agU4XNUv0Q6DNSzP3n4jCC
tFb8IB2im0MYQX/3AHoyuXswc7w4ycXvZFRuIGBVgzbR8BwXpwtqRN0le7pK2WOM
YFxsM4aS8nznMNHblAV/H3vqLpYdiLJVoJt1oZ3uto2QHtBPA/vLX8nndpV1GhKg
L9Yjga3xoil6ImHDVqrpLYUplLLag4g1i5DBt46Qsfp5w3VpwSV7B00PXApMc4f6
KZ6UvQjJtexsEex8BIDSejJmqcOJNyiQ8y3+IwHdc+MYfTk1Is4u
-----END CERTIFICATE-----
