Certificate:
    Data:
        Version: 3 (0x2)
        Serial Number:
            74:89:d5:04:a5:cb:02:90:98:50:70:bf:e5:37:46:ed:f4:ec:c2:12
        Signature Algorithm: sha1WithRSAEncryption
        Issuer: C=AU, O=Dodgy Brothers, CN=Dodgy CA
        Validity
            Not Before: Aug 29 20:47:38 2022 GMT
            Not After : Aug 29 20:47:38 2023 GMT
        Subject: C=AU, O=Dodgy Brothers, CN=Brother 1, CN=both_utctime
        Subject Public Key Info:
            Public Key Algorithm: rsaEncryption
                Public-Key: (2048 bit)
                Modulus:
                    00:be:95:86:fa:71:4c:6a:ea:51:98:50:4b:99:a1:
                    2c:66:15:f3:60:f3:e1:ff:69:fb:ce:48:01:1d:fe:
                    e1:2c:38:b0:e3:bd:8f:4b:48:a7:7e:3a:c6:73:e3:
                    ab:bf:e1:da:6e:96:f5:fe:c3:e4:b4:a8:ad:bc:56:
                    34:d4:96:25:74:27:c3:10:db:35:10:25:1c:8e:4b:
                    81:9b:fb:42:04:7c:6f:3d:e2:38:6c:0e:e4:2e:8e:
                    2a:18:6d:30:cd:67:2a:23:6b:37:cf:05:9f:cc:b7:
                    59:58:7f:ba:c4:0a:3f:8c:a4:ad:cb:98:9c:c0:f2:
                    8f:69:67:0f:c1:4e:33:cf:fc:85:5e:bb:5e:cf:93:
                    b0:cf:d9:f4:52:79:87:b1:f8:4d:15:68:65:d5:b7:
                    19:08:63:7f:5e:b1:34:ad:05:8f:5a:f0:e4:e1:8f:
                    25:f2:5c:5c:61:95:b0:56:2d:31:2b:08:65:79:e5:
                    b1:3b:9d:3e:b9:52:4b:ac:5d:c4:58:66:85:8d:81:
                    b3:04:28:f4:3f:2f:ac:92:01:62:d5:fd:8e:0b:da:
                    02:0c:7a:c7:6e:09:1c:ac:1c:b2:4c:d7:54:b8:26:
                    33:b2:5f:14:f3:b1:f9:3d:62:4d:40:99:6b:b6:e7:
                    89:58:97:d6:d4:4d:ea:4b:68:52:f3:3c:a8:b1:35:
                    88:db
                Exponent: 65537 (0x10001)
        X509v3 extensions:
            X509v3 Subject Key Identifier: 
                A1:DF:33:C3:CF:3E:53:41:A7:68:44:CC:AA:19:E1:84:C9:0D:BC:C6
            X509v3 Authority Key Identifier: 
                keyid:B4:11:33:F1:D7:E2:5E:F7:53:9E:20:22:10:4F:86:06:BF:1F:C9:5E
                DirName:/C=AU/O=Dodgy Brothers/CN=Dodgy CA
                serial:1B:93:5A:DC:E6:D4:40:6F:BB:45:81:47:98:4A:2E:BE:BD:A7:F3:97
            X509v3 Basic Constraints: critical
                CA:TRUE, pathlen:1
            X509v3 Key Usage: 
                Certificate Sign, CRL Sign
            X509v3 Issuer Alternative Name: 
                <EMPTY>

    Signature Algorithm: sha1WithRSAEncryption
    Signature Value:
        16:8b:9a:d9:1f:38:84:82:99:81:53:5c:be:3c:b8:3f:d1:d4:
        69:6d:08:ef:58:b1:52:e6:51:43:e0:9a:78:50:62:66:32:ac:
        de:43:cf:ce:50:fc:1c:43:bc:88:46:d3:c0:23:5c:69:51:9a:
        53:40:d8:9c:f5:ef:68:d2:2e:92:de:c2:d1:14:9a:25:3c:a4:
        27:8f:10:bf:19:21:00:0a:71:17:1b:37:62:15:ed:7a:c7:4c:
        59:f7:ce:64:2d:90:eb:da:b5:be:4f:0c:2b:ef:82:19:cc:e9:
        a0:e6:c0:2d:ff:69:8b:f3:8a:77:84:73:c7:4e:f6:52:97:01:
        b1:69:6d:c9:e4:2e:fe:d7:94:43:2e:8f:f6:c0:59:97:b4:76:
        20:4a:1d:02:7b:bc:a7:20:3b:a0:fb:4f:66:ef:25:ad:be:bf:
        23:66:04:5f:6c:76:c7:16:ec:8e:f5:2d:2f:96:31:cf:bb:55:
        fe:a8:5c:56:56:ab:4a:29:04:18:49:5d:2b:7b:f2:83:c5:69:
        88:bd:eb:22:96:54:72:3b:de:47:0d:5e:33:d3:fc:5c:09:a4:
        28:e1:8d:4c:33:55:43:07:83:4b:15:34:5d:aa:07:22:ab:2e:
        59:06:11:67:9d:2d:2e:3e:d3:2d:97:97:7d:73:e8:bc:1f:05:
        55:f5:d3:20
-----BEGIN CERTIFICATE-----
MIID3TCCAsWgAwIBAgIUdInVBKXLApCYUHC/5TdG7fTswhIwDQYJKoZIhvcNAQEF
BQAwOTELMAkGA1UEBhMCQVUxFzAVBgNVBAoMDkRvZGd5IEJyb3RoZXJzMREwDwYD
VQQDDAhEb2RneSBDQTAeFw0yMjA4MjkyMDQ3MzhaFw0yMzA4MjkyMDQ3MzhaMFEx
CzAJBgNVBAYTAkFVMRcwFQYDVQQKDA5Eb2RneSBCcm90aGVyczESMBAGA1UEAwwJ
QnJvdGhlciAxMRUwEwYDVQQDDAxib3RoX3V0Y3RpbWUwggEiMA0GCSqGSIb3DQEB
AQUAA4IBDwAwggEKAoIBAQC+lYb6cUxq6lGYUEuZoSxmFfNg8+H/afvOSAEd/uEs
OLDjvY9LSKd+OsZz46u/4dpulvX+w+S0qK28VjTUliV0J8MQ2zUQJRyOS4Gb+0IE
fG894jhsDuQujioYbTDNZyojazfPBZ/Mt1lYf7rECj+MpK3LmJzA8o9pZw/BTjPP
/IVeu17Pk7DP2fRSeYex+E0VaGXVtxkIY39esTStBY9a8OThjyXyXFxhlbBWLTEr
CGV55bE7nT65UkusXcRYZoWNgbMEKPQ/L6ySAWLV/Y4L2gIMesduCRysHLJM11S4
JjOyXxTzsfk9Yk1AmWu254lYl9bUTepLaFLzPKixNYjbAgMBAAGjgcQwgcEwHQYD
VR0OBBYEFKHfM8PPPlNBp2hEzKoZ4YTJDbzGMHQGA1UdIwRtMGuAFLQRM/HX4l73
U54gIhBPhga/H8leoT2kOzA5MQswCQYDVQQGEwJBVTEXMBUGA1UECgwORG9kZ3kg
QnJvdGhlcnMxETAPBgNVBAMMCERvZGd5IENBghQbk1rc5tRAb7tFgUeYSi6+vafz
lzASBgNVHRMBAf8ECDAGAQH/AgEBMAsGA1UdDwQEAwIBBjAJBgNVHRIEAjAAMA0G
CSqGSIb3DQEBBQUAA4IBAQAWi5rZHziEgpmBU1y+PLg/0dRpbQjvWLFS5lFD4Jp4
UGJmMqzeQ8/OUPwcQ7yIRtPAI1xpUZpTQNic9e9o0i6S3sLRFJolPKQnjxC/GSEA
CnEXGzdiFe16x0xZ985kLZDr2rW+Twwr74IZzOmg5sAt/2mL84p3hHPHTvZSlwGx
aW3J5C7+15RDLo/2wFmXtHYgSh0Ce7ynIDug+09m7yWtvr8jZgRfbHbHFuyO9S0v
ljHPu1X+qFxWVqtKKQQYSV0re/KDxWmIvesillRyO95HDV4z0/xcCaQo4Y1MM1VD
B4NLFTRdqgciqy5ZBhFnnS0uPtMtl5d9c+i8HwVV9dMg
-----END CERTIFICATE-----
