Certificate:
    Data:
        Version: 3 (0x2)
        Serial Number:
            74:89:d5:04:a5:cb:02:90:98:50:70:bf:e5:37:46:ed:f4:ec:c2:0f
        Signature Algorithm: sha1WithRSAEncryption
        Issuer: C=AU, O=Dodgy Brothers, CN=Dodgy CA
        Validity
            Not Before: Aug 29 20:47:35 2022 GMT
            Not After : Aug 29 20:47:35 2023 GMT
        Subject: C=AU, O=Dodgy Brothers, CN=Brother 1, CN=nextupdate_invalid
        Subject Public Key Info:
            Public Key Algorithm: rsaEncryption
                Public-Key: (2048 bit)
                Modulus:
                    00:be:95:86:fa:71:4c:6a:ea:51:98:50:4b:99:a1:
                    2c:66:15:f3:60:f3:e1:ff:69:fb:ce:48:01:1d:fe:
                    e1:2c:38:b0:e3:bd:8f:4b:48:a7:7e:3a:c6:73:e3:
                    ab:bf:e1:da:6e:96:f5:fe:c3:e4:b4:a8:ad:bc:56:
                    34:d4:96:25:74:27:c3:10:db:35:10:25:1c:8e:4b:
                    81:9b:fb:42:04:7c:6f:3d:e2:38:6c:0e:e4:2e:8e:
                    2a:18:6d:30:cd:67:2a:23:6b:37:cf:05:9f:cc:b7:
                    59:58:7f:ba:c4:0a:3f:8c:a4:ad:cb:98:9c:c0:f2:
                    8f:69:67:0f:c1:4e:33:cf:fc:85:5e:bb:5e:cf:93:
                    b0:cf:d9:f4:52:79:87:b1:f8:4d:15:68:65:d5:b7:
                    19:08:63:7f:5e:b1:34:ad:05:8f:5a:f0:e4:e1:8f:
                    25:f2:5c:5c:61:95:b0:56:2d:31:2b:08:65:79:e5:
                    b1:3b:9d:3e:b9:52:4b:ac:5d:c4:58:66:85:8d:81:
                    b3:04:28:f4:3f:2f:ac:92:01:62:d5:fd:8e:0b:da:
                    02:0c:7a:c7:6e:09:1c:ac:1c:b2:4c:d7:54:b8:26:
                    33:b2:5f:14:f3:b1:f9:3d:62:4d:40:99:6b:b6:e7:
                    89:58:97:d6:d4:4d:ea:4b:68:52:f3:3c:a8:b1:35:
                    88:db
                Exponent: 65537 (0x10001)
        X509v3 extensions:
            X509v3 Subject Key Identifier: 
                A1:DF:33:C3:CF:3E:53:41:A7:68:44:CC:AA:19:E1:84:C9:0D:BC:C6
            X509v3 Authority Key Identifier: 
                keyid:B4:11:33:F1:D7:E2:5E:F7:53:9E:20:22:10:4F:86:06:BF:1F:C9:5E
                DirName:/C=AU/O=Dodgy Brothers/CN=Dodgy CA
                serial:1B:93:5A:DC:E6:D4:40:6F:BB:45:81:47:98:4A:2E:BE:BD:A7:F3:97
            X509v3 Basic Constraints: critical
                CA:TRUE, pathlen:1
            X509v3 Key Usage: 
                Certificate Sign, CRL Sign
            X509v3 Issuer Alternative Name: 
                <EMPTY>

    Signature Algorithm: sha1WithRSAEncryption
    Signature Value:
        5d:ab:d0:24:fc:c9:7e:18:68:62:91:30:7b:01:bb:be:d5:bc:
        21:d1:f2:fc:68:25:7d:20:2e:dc:80:d2:8e:1c:6e:61:c2:2a:
        57:e6:5e:68:ff:0f:55:b2:65:bb:06:e9:76:73:4a:48:40:f1:
        86:89:05:e0:3a:ca:74:c5:42:46:7f:d2:7e:14:d6:30:ce:ec:
        f0:ef:34:9e:4b:e4:0d:2f:0d:bc:4b:9d:a4:b7:62:49:3a:a3:
        1e:a3:1e:96:f9:d0:a5:f2:32:95:c3:2e:97:e3:af:a1:4f:5f:
        eb:1c:ea:80:0f:a2:19:90:a3:5c:3c:ca:b3:7f:e0:f1:a9:f9:
        27:af:c8:87:25:15:b2:1e:6b:5f:b0:41:97:70:ef:47:f3:ba:
        d0:9c:0c:dc:8e:55:4b:b5:23:34:53:82:fb:e2:86:7f:33:06:
        27:a3:51:5f:2c:d7:4e:b9:fc:35:07:57:d7:58:14:7c:4e:0f:
        c9:4e:8c:36:7b:8d:87:83:ad:63:f3:90:b0:25:38:a7:1c:54:
        2b:63:b8:ab:ff:89:c7:15:93:9d:be:87:27:7e:7b:57:ff:06:
        81:55:75:3a:d5:ce:4f:25:3e:08:87:93:0b:a8:cf:7a:84:49:
        85:2b:6a:ac:24:a6:02:7f:fe:fa:6c:b5:11:ca:1e:89:5a:1e:
        85:12:bb:bc
-----BEGIN CERTIFICATE-----
MIID4zCCAsugAwIBAgIUdInVBKXLApCYUHC/5TdG7fTswg8wDQYJKoZIhvcNAQEF
BQAwOTELMAkGA1UEBhMCQVUxFzAVBgNVBAoMDkRvZGd5IEJyb3RoZXJzMREwDwYD
VQQDDAhEb2RneSBDQTAeFw0yMjA4MjkyMDQ3MzVaFw0yMzA4MjkyMDQ3MzVaMFcx
CzAJBgNVBAYTAkFVMRcwFQYDVQQKDA5Eb2RneSBCcm90aGVyczESMBAGA1UEAwwJ
QnJvdGhlciAxMRswGQYDVQQDDBJuZXh0dXBkYXRlX2ludmFsaWQwggEiMA0GCSqG
SIb3DQEBAQUAA4IBDwAwggEKAoIBAQC+lYb6cUxq6lGYUEuZoSxmFfNg8+H/afvO
SAEd/uEsOLDjvY9LSKd+OsZz46u/4dpulvX+w+S0qK28VjTUliV0J8MQ2zUQJRyO
S4Gb+0IEfG894jhsDuQujioYbTDNZyojazfPBZ/Mt1lYf7rECj+MpK3LmJzA8o9p
Zw/BTjPP/IVeu17Pk7DP2fRSeYex+E0VaGXVtxkIY39esTStBY9a8OThjyXyXFxh
lbBWLTErCGV55bE7nT65UkusXcRYZoWNgbMEKPQ/L6ySAWLV/Y4L2gIMesduCRys
HLJM11S4JjOyXxTzsfk9Yk1AmWu254lYl9bUTepLaFLzPKixNYjbAgMBAAGjgcQw
gcEwHQYDVR0OBBYEFKHfM8PPPlNBp2hEzKoZ4YTJDbzGMHQGA1UdIwRtMGuAFLQR
M/HX4l73U54gIhBPhga/H8leoT2kOzA5MQswCQYDVQQGEwJBVTEXMBUGA1UECgwO
RG9kZ3kgQnJvdGhlcnMxETAPBgNVBAMMCERvZGd5IENBghQbk1rc5tRAb7tFgUeY
Si6+vafzlzASBgNVHRMBAf8ECDAGAQH/AgEBMAsGA1UdDwQEAwIBBjAJBgNVHRIE
AjAAMA0GCSqGSIb3DQEBBQUAA4IBAQBdq9Ak/Ml+GGhikTB7Abu+1bwh0fL8aCV9
IC7cgNKOHG5hwipX5l5o/w9VsmW7Bul2c0pIQPGGiQXgOsp0xUJGf9J+FNYwzuzw
7zSeS+QNLw28S52kt2JJOqMeox6W+dCl8jKVwy6X46+hT1/rHOqAD6IZkKNcPMqz
f+Dxqfknr8iHJRWyHmtfsEGXcO9H87rQnAzcjlVLtSM0U4L74oZ/MwYno1FfLNdO
ufw1B1fXWBR8Tg/JTow2e42Hg61j85CwJTinHFQrY7ir/4nHFZOdvocnfntX/waB
VXU61c5PJT4Ih5MLqM96hEmFK2qsJKYCf/76bLURyh6JWh6FEru8
-----END CERTIFICATE-----
