Certificate:
    Data:
        Version: 3 (0x2)
        Serial Number:
            74:89:d5:04:a5:cb:02:90:98:50:70:bf:e5:37:46:ed:f4:ec:c2:0a
        Signature Algorithm: SM2-with-SM3
        Issuer: C=CN, ST=LN, L=Shenyang, O=Test Org, OU=Test OU, CN=Test SM2 CA
        Validity
            Not Before: Aug 29 20:47:31 2022 GMT
            Not After : Aug 29 20:47:31 2023 GMT
        Subject: C=CN, ST=Liaoning, L=Shenyang, O=Tet, OU=Tet, CN=oo/emailAddress=oo@oo.oo
        Subject Public Key Info:
            Public Key Algorithm: sm2
                Public-Key: (256 bit)
                pub:
                    04:d4:d8:dd:3a:99:5d:72:34:e4:b9:9a:5d:18:33:
                    72:1c:09:e1:2b:d7:01:d9:16:7b:8c:09:85:ce:de:
                    e3:80:4b:3d:38:74:a0:ad:bd:dc:ae:3c:fe:a8:66:
                    5f:ab:22:79:03:26:6e:95:0e:e0:74:04:73:6f:51:
                    f9:e6:3b:f0:e6
                ASN1 OID: SM2
        X509v3 extensions:
            X509v3 Subject Key Identifier: 
                F6:52:D4:54:D4:26:10:46:F6:AA:D3:B4:8C:E6:F7:5A:BC:B0:2A:B3
            X509v3 Authority Key Identifier: 
                keyid:C5:8D:C5:AE:FF:32:60:49:9E:52:29:49:54:E5:5C:78:FF:45:B9:74
                DirName:/C=CN/ST=LN/L=Shenyang/O=Test Org/OU=Test OU/CN=Test SM2 CA
                serial:E9:64:A4:3A:52:AE:65:5B
            X509v3 Basic Constraints: critical
                CA:TRUE, pathlen:1
            X509v3 Key Usage: 
                Certificate Sign, CRL Sign
            X509v3 Issuer Alternative Name: 
                <EMPTY>

    Signature Algorithm: SM2-with-SM3
    Signature Value:
        30:46:02:21:00:ec:cc:cc:1d:76:8e:34:9e:2f:e3:2b:bb:5f:
        81:df:c5:40:23:27:ac:df:72:3b:91:21:e9:3f:14:6d:56:c6:
        63:02:21:00:df:bd:83:e7:d4:45:b5:ad:1c:05:62:c8:89:d2:
        38:8f:38:25:0d:7a:b8:68:41:c7:fe:e1:6d:95:ee:b9:5e:e1
-----BEGIN CERTIFICATE-----
MIICzTCCAnKgAwIBAgIUdInVBKXLApCYUHC/5TdG7fTswgowCgYIKoEcz1UBg3Uw
aDELMAkGA1UEBhMCQ04xCzAJBgNVBAgMAkxOMREwDwYDVQQHDAhTaGVueWFuZzER
MA8GA1UECgwIVGVzdCBPcmcxEDAOBgNVBAsMB1Rlc3QgT1UxFDASBgNVBAMMC1Rl
c3QgU00yIENBMB4XDTIyMDgyOTIwNDczMVoXDTIzMDgyOTIwNDczMVowdTELMAkG
A1UEBhMCQ04xETAPBgNVBAgMCExpYW9uaW5nMREwDwYDVQQHDAhTaGVueWFuZzEM
MAoGA1UECgwDVGV0MQwwCgYDVQQLDANUZXQxCzAJBgNVBAMMAm9vMRcwFQYJKoZI
hvcNAQkBFghvb0Bvby5vbzBaMBQGCCqBHM9VAYItBggqgRzPVQGCLQNCAATU2N06
mV1yNOS5ml0YM3IcCeEr1wHZFnuMCYXO3uOASz04dKCtvdyuPP6oZl+rInkDJm6V
DuB0BHNvUfnmO/Dmo4HrMIHoMB0GA1UdDgQWBBT2UtRU1CYQRvaq07SM5vdavLAq
szCBmgYDVR0jBIGSMIGPgBTFjcWu/zJgSZ5SKUlU5Vx4/0W5dKFspGowaDELMAkG
A1UEBhMCQ04xCzAJBgNVBAgMAkxOMREwDwYDVQQHDAhTaGVueWFuZzERMA8GA1UE
CgwIVGVzdCBPcmcxEDAOBgNVBAsMB1Rlc3QgT1UxFDASBgNVBAMMC1Rlc3QgU00y
IENBggkA6WSkOlKuZVswEgYDVR0TAQH/BAgwBgEB/wIBATALBgNVHQ8EBAMCAQYw
CQYDVR0SBAIwADAKBggqgRzPVQGDdQNJADBGAiEA7MzMHXaONJ4v4yu7X4HfxUAj
J6zfcjuRIek/FG1WxmMCIQDfvYPn1EW1rRwFYsiJ0jiPOCUNerhoQcf+4W2V7rle
4Q==
-----END CERTIFICATE-----
