Certificate:
    Data:
        Version: 3 (0x2)
        Serial Number:
            1b:93:5a:dc:e6:d4:40:6f:bb:45:81:47:98:4a:2e:be:bd:a7:f3:97
        Signature Algorithm: sha1WithRSAEncryption
        Issuer: C=AU, O=Dodgy Brothers, CN=Dodgy CA
        Validity
            Not Before: Aug 29 20:47:30 2022 GMT
            Not After : Aug 28 20:47:30 2025 GMT
        Subject: C=AU, O=Dodgy Brothers, CN=Dodgy CA
        Subject Public Key Info:
            Public Key Algorithm: rsaEncryption
                Public-Key: (2048 bit)
                Modulus:
                    00:96:9d:a4:3d:00:4b:1c:5f:c6:cb:dd:8f:d2:31:
                    b2:88:15:cc:c4:86:2c:5c:e2:69:8b:84:f4:a7:a3:
                    53:df:91:e3:bf:51:89:fb:f0:7c:10:0d:3b:ad:ac:
                    35:62:75:f5:7f:ff:f4:6e:54:8f:05:a6:92:23:b3:
                    9f:59:39:d0:39:18:b0:10:40:de:62:73:8a:4e:b0:
                    8e:df:dc:e7:c9:41:22:54:84:80:08:29:bc:35:3c:
                    86:df:30:de:dd:b4:24:ff:7e:62:a5:c0:7a:e8:2a:
                    16:3f:d6:97:da:c5:42:db:2f:69:64:91:cb:08:d7:
                    56:5a:79:7f:1b:84:41:e9:4d:9d:77:09:10:a8:6c:
                    29:33:44:c6:c0:54:65:e6:e8:e3:f2:75:05:6a:64:
                    95:6c:c0:f4:fd:25:61:6e:48:36:f0:c0:03:07:05:
                    d6:7c:e5:11:fd:18:e8:4a:2d:d3:72:0c:37:28:36:
                    31:31:38:85:e8:71:8d:d8:02:49:c8:bc:19:89:c5:
                    8a:b1:3f:a2:35:ea:aa:90:1c:64:68:7b:af:67:6a:
                    5a:06:54:0f:50:e1:f9:b4:f6:be:3a:d4:ce:3f:1e:
                    4c:7d:c6:77:32:3e:a2:58:ed:db:dd:74:d8:92:14:
                    6a:a8:f7:cb:34:58:91:a8:7c:14:b1:7d:08:b3:4d:
                    b1:47
                Exponent: 65537 (0x10001)
        X509v3 extensions:
            X509v3 Subject Key Identifier: 
                B4:11:33:F1:D7:E2:5E:F7:53:9E:20:22:10:4F:86:06:BF:1F:C9:5E
            X509v3 Authority Key Identifier: 
                keyid:B4:11:33:F1:D7:E2:5E:F7:53:9E:20:22:10:4F:86:06:BF:1F:C9:5E
                DirName:/C=AU/O=Dodgy Brothers/CN=Dodgy CA
                serial:1B:93:5A:DC:E6:D4:40:6F:BB:45:81:47:98:4A:2E:BE:BD:A7:F3:97
            X509v3 Basic Constraints: critical
                CA:TRUE, pathlen:1
            X509v3 Key Usage: 
                Certificate Sign, CRL Sign
            X509v3 Issuer Alternative Name: 
                <EMPTY>

    Signature Algorithm: sha1WithRSAEncryption
    Signature Value:
        2e:99:50:b8:7e:dd:7b:d2:b4:2b:dc:cf:ae:55:35:f8:5d:e2:
        0b:ff:b9:d4:30:3b:30:32:3d:b2:de:15:dc:44:ac:84:8f:00:
        d7:82:31:b8:21:b6:b2:6f:8a:4c:71:72:7c:53:29:cc:c4:82:
        06:52:94:84:b8:24:c0:cc:21:01:5d:0a:6a:d0:dd:0c:7f:b0:
        6f:64:76:37:f4:0b:b4:d0:9b:21:6c:49:87:23:bb:41:29:4b:
        9b:45:52:ad:64:a4:5e:7f:b5:c1:ce:82:cc:c3:2e:17:88:4e:
        24:84:5c:a3:ad:11:cb:f5:eb:57:2a:f4:8d:c0:d0:ce:a6:f3:
        a4:9c:30:e2:03:d4:23:4b:b8:5d:df:4c:24:f3:f2:93:23:2e:
        6e:e7:81:49:1f:f6:8f:90:c3:3a:e4:e6:b9:6a:34:75:81:18:
        d4:53:0f:7e:23:b2:8c:78:ac:06:0d:21:c1:f8:96:4f:43:8a:
        08:85:8a:8a:e5:8f:9d:9f:97:9f:ee:00:e7:34:ea:01:0c:de:
        07:f6:12:b6:1d:02:4a:11:b2:b0:ed:ba:46:e1:0e:89:07:1a:
        49:26:0e:28:5c:90:4c:b3:0a:fc:34:cd:3d:f0:26:13:c5:36:
        5e:16:9e:e0:d3:06:4d:59:af:64:24:bf:57:81:10:a0:7a:1a:
        62:9b:4e:40
-----BEGIN CERTIFICATE-----
MIIDxTCCAq2gAwIBAgIUG5Na3ObUQG+7RYFHmEouvr2n85cwDQYJKoZIhvcNAQEF
BQAwOTELMAkGA1UEBhMCQVUxFzAVBgNVBAoMDkRvZGd5IEJyb3RoZXJzMREwDwYD
VQQDDAhEb2RneSBDQTAeFw0yMjA4MjkyMDQ3MzBaFw0yNTA4MjgyMDQ3MzBaMDkx
CzAJBgNVBAYTAkFVMRcwFQYDVQQKDA5Eb2RneSBCcm90aGVyczERMA8GA1UEAwwI
RG9kZ3kgQ0EwggEiMA0GCSqGSIb3DQEBAQUAA4IBDwAwggEKAoIBAQCWnaQ9AEsc
X8bL3Y/SMbKIFczEhixc4mmLhPSno1PfkeO/UYn78HwQDTutrDVidfV///RuVI8F
ppIjs59ZOdA5GLAQQN5ic4pOsI7f3OfJQSJUhIAIKbw1PIbfMN7dtCT/fmKlwHro
KhY/1pfaxULbL2lkkcsI11ZaeX8bhEHpTZ13CRCobCkzRMbAVGXm6OPydQVqZJVs
wPT9JWFuSDbwwAMHBdZ85RH9GOhKLdNyDDcoNjExOIXocY3YAknIvBmJxYqxP6I1
6qqQHGRoe69naloGVA9Q4fm09r461M4/Hkx9xncyPqJY7dvddNiSFGqo98s0WJGo
fBSxfQizTbFHAgMBAAGjgcQwgcEwHQYDVR0OBBYEFLQRM/HX4l73U54gIhBPhga/
H8leMHQGA1UdIwRtMGuAFLQRM/HX4l73U54gIhBPhga/H8leoT2kOzA5MQswCQYD
VQQGEwJBVTEXMBUGA1UECgwORG9kZ3kgQnJvdGhlcnMxETAPBgNVBAMMCERvZGd5
IENBghQbk1rc5tRAb7tFgUeYSi6+vafzlzASBgNVHRMBAf8ECDAGAQH/AgEBMAsG
A1UdDwQEAwIBBjAJBgNVHRIEAjAAMA0GCSqGSIb3DQEBBQUAA4IBAQAumVC4ft17
0rQr3M+uVTX4XeIL/7nUMDswMj2y3hXcRKyEjwDXgjG4Ibayb4pMcXJ8UynMxIIG
UpSEuCTAzCEBXQpq0N0Mf7BvZHY39Au00JshbEmHI7tBKUubRVKtZKRef7XBzoLM
wy4XiE4khFyjrRHL9etXKvSNwNDOpvOknDDiA9QjS7hd30wk8/KTIy5u54FJH/aP
kMM65Oa5ajR1gRjUUw9+I7KMeKwGDSHB+JZPQ4oIhYqK5Y+dn5ef7gDnNOoBDN4H
9hK2HQJKEbKw7bpG4Q6JBxpJJg4oXJBMswr8NM098CYTxTZeFp7g0wZNWa9kJL9X
gRCgehpim05A
-----END CERTIFICATE-----
